; Function Attrs: mustprogress uwtable
define noundef zeroext i1 @_ZNK10open_spiel16nine_mens_morris19NineMensMorrisState13CheckAllMillsEi(ptr nocapture noundef nonnull readonly align 8 dereferenceable(216) %0, i32 noundef %1) local_unnamed_addr #3 align 2 personality ptr @__gxx_personality_v0 {
  %3 = alloca %"class.std::__cxx11::basic_string", align 8
  %4 = alloca %"class.std::allocator", align 1
  %5 = getelementptr inbounds nuw i8, ptr %0, i64 60
  br label %6

6:                                                ; preds = %2, %23
  %indvars.iv = phi i64 [ 0, %2 ], [ %indvars.iv.next, %23 ]
  %7 = getelementptr inbounds [24 x i32], ptr %5, i64 0, i64 %indvars.iv
  %8 = load i32, ptr %7, align 4
  call void @llvm.lifetime.start.p0(i64 32, ptr nonnull %3)
  call void @llvm.lifetime.start.p0(i64 1, ptr nonnull %4)
  %9 = icmp ult i32 %8, 3
  br i1 %9, label %switch.lookup, label %10

10:                                               ; preds = %6
  call void @_ZNSaIcEC1Ev(ptr noundef nonnull align 1 dereferenceable(1) %4) #26
  invoke void @_ZNSt7__cxx1112basic_stringIcSt11char_traitsIcESaIcEEC2IS3_EEPKcRKS3_(ptr noundef nonnull align 8 dereferenceable(32) %3, ptr noundef nonnull @.str.8, ptr noundef nonnull align 1 dereferenceable(1) %4)
          to label %11 unwind label %13

11:                                               ; preds = %10
  invoke void @_ZN10open_spiel15SpielFatalErrorERKNSt7__cxx1112basic_stringIcSt11char_traitsIcESaIcEEE(ptr noundef nonnull align 8 dereferenceable(32) %3) #25
          to label %12 unwind label %15

12:                                               ; preds = %11
  unreachable

13:                                               ; preds = %10
  %14 = landingpad { ptr, i32 }
          cleanup
  br label %17

15:                                               ; preds = %11
  %16 = landingpad { ptr, i32 }
          cleanup
  call void @_ZNSt7__cxx1112basic_stringIcSt11char_traitsIcESaIcEED1Ev(ptr noundef nonnull align 8 dereferenceable(32) %3) #26
  br label %17

17:                                               ; preds = %15, %13
  %.pn.i = phi { ptr, i32 } [ %16, %15 ], [ %14, %13 ]
  call void @_ZNSaIcED1Ev(ptr noundef nonnull align 1 dereferenceable(1) %4) #26
  resume { ptr, i32 } %.pn.i

switch.lookup:                                    ; preds = %6
  %18 = zext nneg i32 %8 to i64
  %switch.gep = getelementptr inbounds [3 x i32], ptr @switch.table._ZN10open_spiel16nine_mens_morris19NineMensMorrisState13DoApplyActionEl, i64 0, i64 %18
  %switch.load = load i32, ptr %switch.gep, align 4
  call void @llvm.lifetime.end.p0(i64 32, ptr nonnull %3)
  call void @llvm.lifetime.end.p0(i64 1, ptr nonnull %4)
  %19 = icmp eq i32 %switch.load, %1
  br i1 %19, label %20, label %23

20:                                               ; preds = %switch.lookup
  %21 = trunc nuw nsw i64 %indvars.iv to i32
  %22 = tail call noundef zeroext i1 @_ZNK10open_spiel16nine_mens_morris19NineMensMorrisState11CheckInMillEi(ptr noundef nonnull align 8 dereferenceable(216) %0, i32 noundef %21)
  br i1 %22, label %23, label %24

23:                                               ; preds = %switch.lookup, %20
  %indvars.iv.next = add nuw nsw i64 %indvars.iv, 1
  %exitcond = icmp eq i64 %indvars.iv.next, 24
  br i1 %exitcond, label %24, label %6, !llvm.loop !11

24:                                               ; preds = %23, %20
  %.lcssa = phi i1 [ true, %23 ], [ false, %20 ]
  ret i1 %.lcssa
}